target datalayout = "e-m:e-p270:32:32-p271:32:32-p272:64:64-i64:64-i128:128-f80:128-n8:16:32:64-S128"
target triple = "x86_64-pc-linux-gnu"

%struct.AVProbeData = type { ptr, ptr, i32, ptr }

; Function Attrs: nounwind uwtable
define internal i32 @idcin_probe(ptr noundef %0) #0 {
  %2 = alloca i32, align 4
  %3 = alloca ptr, align 8
  %4 = alloca i32, align 4
  %5 = alloca i32, align 4
  %6 = alloca i32, align 4
  %7 = alloca i32, align 4
  %8 = alloca i32, align 4
  %9 = alloca i32, align 4
  store ptr %0, ptr %3, align 8, !tbaa !4
  call void @llvm.lifetime.start.p0(i64 4, ptr %4) #5
  call void @llvm.lifetime.start.p0(i64 4, ptr %5) #5
  call void @llvm.lifetime.start.p0(i64 4, ptr %6) #5
  call void @llvm.lifetime.start.p0(i64 4, ptr %7) #5
  call void @llvm.lifetime.start.p0(i64 4, ptr %8) #5
  %10 = load ptr, ptr %3, align 8, !tbaa !4
  %11 = getelementptr inbounds nuw %struct.AVProbeData, ptr %10, i32 0, i32 2
  %12 = load i32, ptr %11, align 8, !tbaa !9
  %13 = icmp slt i32 %12, 65568
  br i1 %13, label %14, label %15

14:                                               ; preds = %1
  store i32 0, ptr %2, align 4
  store i32 1, ptr %9, align 4
  br label %118

15:                                               ; preds = %1
  %16 = load ptr, ptr %3, align 8, !tbaa !4
  %17 = getelementptr inbounds nuw %struct.AVProbeData, ptr %16, i32 0, i32 1
  %18 = load ptr, ptr %17, align 8, !tbaa !13
  %19 = getelementptr inbounds i8, ptr %18, i64 0
  %20 = load i32, ptr %19, align 1, !tbaa !14
  store i32 %20, ptr %6, align 4, !tbaa !15
  %21 = load i32, ptr %6, align 4, !tbaa !15
  %22 = icmp eq i32 %21, 0
  br i1 %22, label %26, label %23

23:                                               ; preds = %15
  %24 = load i32, ptr %6, align 4, !tbaa !15
  %25 = icmp ugt i32 %24, 1024
  br i1 %25, label %26, label %27

26:                                               ; preds = %23, %15
  store i32 0, ptr %2, align 4
  store i32 1, ptr %9, align 4
  br label %118

27:                                               ; preds = %23
  %28 = load ptr, ptr %3, align 8, !tbaa !4
  %29 = getelementptr inbounds nuw %struct.AVProbeData, ptr %28, i32 0, i32 1
  %30 = load ptr, ptr %29, align 8, !tbaa !13
  %31 = getelementptr inbounds i8, ptr %30, i64 4
  %32 = load i32, ptr %31, align 1, !tbaa !14
  store i32 %32, ptr %7, align 4, !tbaa !15
  %33 = load i32, ptr %7, align 4, !tbaa !15
  %34 = icmp eq i32 %33, 0
  br i1 %34, label %38, label %35

35:                                               ; preds = %27
  %36 = load i32, ptr %7, align 4, !tbaa !15
  %37 = icmp ugt i32 %36, 1024
  br i1 %37, label %38, label %39

38:                                               ; preds = %35, %27
  store i32 0, ptr %2, align 4
  store i32 1, ptr %9, align 4
  br label %118

39:                                               ; preds = %35
  %40 = load ptr, ptr %3, align 8, !tbaa !4
  %41 = getelementptr inbounds nuw %struct.AVProbeData, ptr %40, i32 0, i32 1
  %42 = load ptr, ptr %41, align 8, !tbaa !13
  %43 = getelementptr inbounds i8, ptr %42, i64 8
  %44 = load i32, ptr %43, align 1, !tbaa !14
  store i32 %44, ptr %5, align 4, !tbaa !15
  %45 = load i32, ptr %5, align 4, !tbaa !15
  %46 = icmp ne i32 %45, 0
  br i1 %46, label %47, label %54

47:                                               ; preds = %39
  %48 = load i32, ptr %5, align 4, !tbaa !15
  %49 = icmp ult i32 %48, 8000
  br i1 %49, label %53, label %50

50:                                               ; preds = %47
  %51 = load i32, ptr %5, align 4, !tbaa !15
  %52 = icmp ugt i32 %51, 48000
  br i1 %52, label %53, label %54

53:                                               ; preds = %50, %47
  store i32 0, ptr %2, align 4
  store i32 1, ptr %9, align 4
  br label %118

54:                                               ; preds = %50, %39
  %55 = load ptr, ptr %3, align 8, !tbaa !4
  %56 = getelementptr inbounds nuw %struct.AVProbeData, ptr %55, i32 0, i32 1
  %57 = load ptr, ptr %56, align 8, !tbaa !13
  %58 = getelementptr inbounds i8, ptr %57, i64 12
  %59 = load i32, ptr %58, align 1, !tbaa !14
  store i32 %59, ptr %4, align 4, !tbaa !15
  %60 = load i32, ptr %4, align 4, !tbaa !15
  %61 = icmp ugt i32 %60, 2
  br i1 %61, label %68, label %62

62:                                               ; preds = %54
  %63 = load i32, ptr %5, align 4, !tbaa !15
  %64 = icmp ne i32 %63, 0
  br i1 %64, label %65, label %69

65:                                               ; preds = %62
  %66 = load i32, ptr %4, align 4, !tbaa !15
  %67 = icmp ne i32 %66, 0
  br i1 %67, label %69, label %68

68:                                               ; preds = %65, %54
  store i32 0, ptr %2, align 4
  store i32 1, ptr %9, align 4
  br label %118

69:                                               ; preds = %65, %62
  %70 = load ptr, ptr %3, align 8, !tbaa !4
  %71 = getelementptr inbounds nuw %struct.AVProbeData, ptr %70, i32 0, i32 1
  %72 = load ptr, ptr %71, align 8, !tbaa !13
  %73 = getelementptr inbounds i8, ptr %72, i64 16
  %74 = load i32, ptr %73, align 1, !tbaa !14
  store i32 %74, ptr %4, align 4, !tbaa !15
  %75 = load i32, ptr %4, align 4, !tbaa !15
  %76 = icmp ugt i32 %75, 2
  br i1 %76, label %83, label %77

77:                                               ; preds = %69
  %78 = load i32, ptr %5, align 4, !tbaa !15
  %79 = icmp ne i32 %78, 0
  br i1 %79, label %80, label %84

80:                                               ; preds = %77
  %81 = load i32, ptr %4, align 4, !tbaa !15
  %82 = icmp ne i32 %81, 0
  br i1 %82, label %84, label %83

83:                                               ; preds = %80, %69
  store i32 0, ptr %2, align 4
  store i32 1, ptr %9, align 4
  br label %118

84:                                               ; preds = %80, %77
  store i32 65556, ptr %8, align 4, !tbaa !15
  %85 = load ptr, ptr %3, align 8, !tbaa !4
  %86 = getelementptr inbounds nuw %struct.AVProbeData, ptr %85, i32 0, i32 1
  %87 = load ptr, ptr %86, align 8, !tbaa !13
  %88 = load i32, ptr %8, align 4, !tbaa !15
  %89 = sext i32 %88 to i64
  %90 = getelementptr inbounds i8, ptr %87, i64 %89
  %91 = load i32, ptr %90, align 1, !tbaa !14
  %92 = icmp eq i32 %91, 1
  br i1 %92, label %93, label %96

93:                                               ; preds = %84
  %94 = load i32, ptr %8, align 4, !tbaa !15
  %95 = add nsw i32 %94, 768
  store i32 %95, ptr %8, align 4, !tbaa !15
  br label %96

96:                                               ; preds = %93, %84
  %97 = load i32, ptr %8, align 4, !tbaa !15
  %98 = add nsw i32 %97, 12
  %99 = load ptr, ptr %3, align 8, !tbaa !4
  %100 = getelementptr inbounds nuw %struct.AVProbeData, ptr %99, i32 0, i32 2
  %101 = load i32, ptr %100, align 8, !tbaa !9
  %102 = icmp sgt i32 %98, %101
  br i1 %102, label %116, label %103

103:                                              ; preds = %96
  %104 = load ptr, ptr %3, align 8, !tbaa !4
  %105 = getelementptr inbounds nuw %struct.AVProbeData, ptr %104, i32 0, i32 1
  %106 = load ptr, ptr %105, align 8, !tbaa !13
  %107 = load i32, ptr %8, align 4, !tbaa !15
  %108 = add nsw i32 %107, 8
  %109 = sext i32 %108 to i64
  %110 = getelementptr inbounds i8, ptr %106, i64 %109
  %111 = load i32, ptr %110, align 1, !tbaa !14
  %112 = load i32, ptr %6, align 4, !tbaa !15
  %113 = load i32, ptr %7, align 4, !tbaa !15
  %114 = mul i32 %112, %113
  %115 = icmp ne i32 %111, %114
  br i1 %115, label %116, label %117

116:                                              ; preds = %103, %96
  store i32 1, ptr %2, align 4
  store i32 1, ptr %9, align 4
  br label %118

117:                                              ; preds = %103
  store i32 50, ptr %2, align 4
  store i32 1, ptr %9, align 4
  br label %118

118:                                              ; preds = %117, %116, %83, %68, %53, %38, %26, %14
  call void @llvm.lifetime.end.p0(i64 4, ptr %8) #5
  call void @llvm.lifetime.end.p0(i64 4, ptr %7) #5
  call void @llvm.lifetime.end.p0(i64 4, ptr %6) #5
  call void @llvm.lifetime.end.p0(i64 4, ptr %5) #5
  call void @llvm.lifetime.end.p0(i64 4, ptr %4) #5
  %119 = load i32, ptr %2, align 4
  ret i32 %119
}