; Function Attrs: mustprogress nofree norecurse nosync nounwind willreturn memory(read, inaccessiblemem: none) uwtable
define internal range(i32 0, 51) i32 @idcin_probe(ptr noundef readonly captures(none) %0) #0 {
  %2 = getelementptr inbounds nuw i8, ptr %0, i64 16
  %3 = load i32, ptr %2, align 8, !tbaa !4
  %4 = icmp slt i32 %3, 65568
  br i1 %4, label %42, label %5

5:                                                ; preds = %1
  %6 = getelementptr inbounds nuw i8, ptr %0, i64 8
  %7 = load ptr, ptr %6, align 8, !tbaa !11
  %8 = load i32, ptr %7, align 1, !tbaa !12
  %9 = add i32 %8, -1025
  %or.cond = icmp ult i32 %9, -1024
  br i1 %or.cond, label %42, label %10

10:                                               ; preds = %5
  %11 = getelementptr inbounds nuw i8, ptr %7, i64 4
  %12 = load i32, ptr %11, align 1, !tbaa !12
  %13 = add i32 %12, -1025
  %or.cond3 = icmp ult i32 %13, -1024
  br i1 %or.cond3, label %42, label %14

14:                                               ; preds = %10
  %15 = getelementptr inbounds nuw i8, ptr %7, i64 8
  %16 = load i32, ptr %15, align 1, !tbaa !12
  %.not = icmp ne i32 %16, 0
  %17 = add i32 %16, -48001
  %or.cond5 = icmp ult i32 %17, -40001
  %or.cond44 = and i1 %.not, %or.cond5
  br i1 %or.cond44, label %42, label %18

18:                                               ; preds = %14
  %19 = getelementptr inbounds nuw i8, ptr %7, i64 12
  %20 = load i32, ptr %19, align 1, !tbaa !12
  %21 = icmp ugt i32 %20, 2
  br i1 %21, label %42, label %22

22:                                               ; preds = %18
  %23 = icmp eq i32 %16, 0
  %24 = icmp ne i32 %20, 0
  %or.cond7 = or i1 %23, %24
  br i1 %or.cond7, label %25, label %42

25:                                               ; preds = %22
  %26 = getelementptr inbounds nuw i8, ptr %7, i64 16
  %27 = load i32, ptr %26, align 1, !tbaa !12
  %28 = icmp ult i32 %27, 3
  %29 = icmp ne i32 %27, 0
  %or.cond9 = or i1 %23, %29
  %or.cond45 = and i1 %28, %or.cond9
  br i1 %or.cond45, label %30, label %42

30:                                               ; preds = %25
  %31 = getelementptr inbounds nuw i8, ptr %7, i64 65556
  %32 = load i32, ptr %31, align 1, !tbaa !12
  %33 = icmp eq i32 %32, 1
  %spec.select = select i1 %33, i32 66324, i32 65556
  %34 = add nuw nsw i32 %spec.select, 12
  %35 = icmp samesign ugt i32 %34, %3
  br i1 %35, label %42, label %36

36:                                               ; preds = %30
  %37 = zext nneg i32 %spec.select to i64
  %38 = getelementptr inbounds nuw i8, ptr %7, i64 %37
  %39 = getelementptr inbounds nuw i8, ptr %38, i64 8
  %40 = load i32, ptr %39, align 1, !tbaa !12
  %41 = mul nuw nsw i32 %12, %8
  %.not43 = icmp eq i32 %40, %41
  %spec.select46 = select i1 %.not43, i32 50, i32 1
  br label %42

42:                                               ; preds = %36, %30, %25, %18, %22, %14, %10, %5, %1
  %.037 = phi i32 [ 0, %1 ], [ 0, %5 ], [ 0, %10 ], [ 0, %14 ], [ 0, %22 ], [ 0, %18 ], [ 0, %25 ], [ 1, %30 ], [ %spec.select46, %36 ]
  ret i32 %.037
}